; Function Attrs: mustprogress uwtable
define hidden noundef zeroext i1 @_ZNK7datalog8rule_set16is_finite_domainEv(ptr noundef nonnull readonly align 8 captures(none) dereferenceable(248) %0) local_unnamed_addr #3 align 2 {
  %2 = getelementptr inbounds nuw i8, ptr %0, i64 24
  %3 = load ptr, ptr %2, align 8, !tbaa !80
  %4 = icmp eq ptr %3, null
  br i1 %4, label %._crit_edge, label %_ZNK7datalog8rule_set3endEv.exit

_ZNK7datalog8rule_set3endEv.exit:                 ; preds = %1
  %5 = getelementptr inbounds i8, ptr %3, i64 -4
  %6 = load i32, ptr %5, align 4, !tbaa !83
  %7 = zext i32 %6 to i64
  %8 = getelementptr inbounds nuw ptr, ptr %3, i64 %7
  %.not13 = icmp eq i32 %6, 0
  br i1 %.not13, label %._crit_edge, label %.lr.ph

.lr.ph:                                           ; preds = %_ZNK7datalog8rule_set3endEv.exit
  %9 = getelementptr inbounds nuw i8, ptr %0, i64 8
  br label %10

10:                                               ; preds = %10, %.lr.ph
  %.01214 = phi ptr [ %3, %.lr.ph ], [ %14, %10 ]
  %11 = load ptr, ptr %.01214, align 8, !tbaa !84
  %12 = load ptr, ptr %9, align 8, !tbaa !326
  %13 = tail call noundef zeroext i1 @_ZNK7datalog12rule_manager16is_finite_domainERKNS_4ruleE(ptr noundef nonnull align 8 dereferenceable(1104) %12, ptr noundef nonnull align 8 dereferenceable(80) %11)
  %14 = getelementptr inbounds nuw i8, ptr %.01214, i64 8
  %.not = icmp ne ptr %14, %8
  %or.cond.not = select i1 %13, i1 %.not, i1 false
  br i1 %or.cond.not, label %10, label %._crit_edge

._crit_edge:                                      ; preds = %10, %1, %_ZNK7datalog8rule_set3endEv.exit
  %.not.lcssa = phi i1 [ true, %_ZNK7datalog8rule_set3endEv.exit ], [ true, %1 ], [ %13, %10 ]
  ret i1 %.not.lcssa
}